target datalayout = "e-m:e-p270:32:32-p271:32:32-p272:64:64-i64:64-i128:128-f80:128-n8:16:32:64-S128"
target triple = "x86_64-pc-linux-gnu"

%struct._GLXGraphicsConfigInfo = type { i32, i32, ptr, ptr }
%struct.OGLContext = type { ptr, i32, i32, float, i32, i32, i8, i8, i8, i8, i32, i8, ptr, i32, i32, i8 }

; Function Attrs: nounwind uwtable
define i32 @Java_sun_java2d_opengl_GLXGraphicsConfig_getOGLCapabilities(ptr noundef %0, ptr noundef %1, i64 noundef %2) #0 {
  %4 = alloca i32, align 4
  %5 = alloca ptr, align 8
  %6 = alloca ptr, align 8
  %7 = alloca i64, align 8
  %8 = alloca ptr, align 8
  store ptr %0, ptr %5, align 8
  store ptr %1, ptr %6, align 8
  store i64 %2, ptr %7, align 8
  %9 = load i64, ptr %7, align 8
  %10 = inttoptr i64 %9 to ptr
  store ptr %10, ptr %8, align 8
  %11 = load ptr, ptr %8, align 8
  %12 = icmp eq ptr %11, null
  br i1 %12, label %18, label %13

13:                                               ; preds = %3
  %14 = load ptr, ptr %8, align 8
  %15 = getelementptr inbounds %struct._GLXGraphicsConfigInfo, ptr %14, i32 0, i32 2
  %16 = load ptr, ptr %15, align 8
  %17 = icmp eq ptr %16, null
  br i1 %17, label %18, label %19

18:                                               ; preds = %13, %3
  store i32 0, ptr %4, align 4
  br label %25

19:                                               ; preds = %13
  %20 = load ptr, ptr %8, align 8
  %21 = getelementptr inbounds %struct._GLXGraphicsConfigInfo, ptr %20, i32 0, i32 2
  %22 = load ptr, ptr %21, align 8
  %23 = getelementptr inbounds %struct.OGLContext, ptr %22, i32 0, i32 1
  %24 = load i32, ptr %23, align 8
  store i32 %24, ptr %4, align 4
  br label %25

25:                                               ; preds = %19, %18
  %26 = load i32, ptr %4, align 4
  ret i32 %26
}