; Function Attrs: mustprogress nofree norecurse nosync nounwind willreturn memory(read, inaccessiblemem: none) uwtable
define i32 @Java_sun_java2d_opengl_GLXGraphicsConfig_getOGLCapabilities(ptr nocapture noundef readnone %0, ptr nocapture noundef readnone %1, i64 noundef %2) local_unnamed_addr #4 {
  %4 = icmp eq i64 %2, 0
  br i1 %4, label %13, label %5

5:                                                ; preds = %3
  %6 = inttoptr i64 %2 to ptr
  %7 = getelementptr inbounds i8, ptr %6, i64 8
  %8 = load ptr, ptr %7, align 8
  %9 = icmp eq ptr %8, null
  br i1 %9, label %13, label %10

10:                                               ; preds = %5
  %11 = getelementptr inbounds i8, ptr %8, i64 8
  %12 = load i32, ptr %11, align 8
  br label %13

13:                                               ; preds = %3, %5, %10
  %.0 = phi i32 [ %12, %10 ], [ 0, %5 ], [ 0, %3 ]
  ret i32 %.0
}